target datalayout = "e-m:e-p270:32:32-p271:32:32-p272:64:64-i64:64-i128:128-f80:128-n8:16:32:64-S128"
target triple = "x86_64-pc-linux-gnu"

%struct.anon = type { i32, i32 }
%struct.SDL_Keymap = type { ptr, ptr, i8, i8, i8, i8, i8 }

@normal_default_symbols = internal constant [27 x i32] [i32 49, i32 50, i32 51, i32 52, i32 53, i32 54, i32 55, i32 56, i32 57, i32 48, i32 13, i32 27, i32 8, i32 9, i32 32, i32 45, i32 61, i32 91, i32 93, i32 92, i32 35, i32 59, i32 39, i32 96, i32 44, i32 46, i32 47], align 16
@shifted_default_symbols = internal constant [27 x i32] [i32 33, i32 64, i32 35, i32 36, i32 37, i32 94, i32 38, i32 42, i32 40, i32 41, i32 13, i32 27, i32 8, i32 9, i32 32, i32 95, i32 43, i32 123, i32 125, i32 124, i32 35, i32 58, i32 34, i32 126, i32 60, i32 62, i32 63], align 16
@extended_default_symbols = internal constant [5 x %struct.anon] [%struct.anon { i32 536870913, i32 43 }, %struct.anon { i32 536870915, i32 101 }, %struct.anon { i32 536870916, i32 227 }, %struct.anon { i32 536870917, i32 231 }, %struct.anon { i32 536870919, i32 101 }], align 16

; Function Attrs: nounwind uwtable
define internal i32 @SDL_GetDefaultScancodeFromKey(i32 noundef %0, ptr noundef %1) #0 {
  %3 = alloca i32, align 4
  %4 = alloca i32, align 4
  %5 = alloca ptr, align 8
  %6 = alloca i32, align 4
  %7 = alloca i32, align 4
  %8 = alloca i32, align 4
  %9 = alloca i32, align 4
  store i32 %0, ptr %4, align 4
  store ptr %1, ptr %5, align 8
  %10 = load ptr, ptr %5, align 8
  %11 = icmp ne ptr %10, null
  br i1 %11, label %12, label %14

12:                                               ; preds = %2
  %13 = load ptr, ptr %5, align 8
  store i16 0, ptr %13, align 2
  br label %14

14:                                               ; preds = %12, %2
  %15 = load i32, ptr %4, align 4
  %16 = icmp eq i32 %15, 0
  br i1 %16, label %17, label %18

17:                                               ; preds = %14
  store i32 0, ptr %3, align 4
  br label %135

18:                                               ; preds = %14
  %19 = load i32, ptr %4, align 4
  %20 = and i32 %19, 536870912
  %21 = icmp ne i32 %20, 0
  br i1 %21, label %22, label %49

22:                                               ; preds = %18
  call void @llvm.lifetime.start.p0(i64 4, ptr %6) #4
  store i32 0, ptr %6, align 4
  br label %23

23:                                               ; preds = %43, %22
  %24 = load i32, ptr %6, align 4
  %25 = sext i32 %24 to i64
  %26 = icmp ult i64 %25, 5
  br i1 %26, label %28, label %27

27:                                               ; preds = %23
  store i32 2, ptr %7, align 4
  br label %46

28:                                               ; preds = %23
  %29 = load i32, ptr %6, align 4
  %30 = sext i32 %29 to i64
  %31 = getelementptr inbounds [5 x %struct.anon], ptr @extended_default_symbols, i64 0, i64 %30
  %32 = getelementptr inbounds nuw %struct.anon, ptr %31, i32 0, i32 0
  %33 = load i32, ptr %32, align 8
  %34 = load i32, ptr %4, align 4
  %35 = icmp eq i32 %33, %34
  br i1 %35, label %36, label %42

36:                                               ; preds = %28
  %37 = load i32, ptr %6, align 4
  %38 = sext i32 %37 to i64
  %39 = getelementptr inbounds [5 x %struct.anon], ptr @extended_default_symbols, i64 0, i64 %38
  %40 = getelementptr inbounds nuw %struct.anon, ptr %39, i32 0, i32 1
  %41 = load i32, ptr %40, align 4
  store i32 %41, ptr %3, align 4
  store i32 1, ptr %7, align 4
  br label %46

42:                                               ; preds = %28
  br label %43

43:                                               ; preds = %42
  %44 = load i32, ptr %6, align 4
  %45 = add nsw i32 %44, 1
  store i32 %45, ptr %6, align 4
  br label %23, !llvm.loop !5

46:                                               ; preds = %36, %27
  call void @llvm.lifetime.end.p0(i64 4, ptr %6) #4
  %47 = load i32, ptr %7, align 4
  switch i32 %47, label %137 [
    i32 2, label %48
    i32 1, label %135
  ]

48:                                               ; preds = %46
  store i32 0, ptr %3, align 4
  br label %135

49:                                               ; preds = %18
  %50 = load i32, ptr %4, align 4
  %51 = and i32 %50, 1073741824
  %52 = icmp ne i32 %51, 0
  br i1 %52, label %53, label %56

53:                                               ; preds = %49
  %54 = load i32, ptr %4, align 4
  %55 = and i32 %54, -1073741825
  store i32 %55, ptr %3, align 4
  br label %135

56:                                               ; preds = %49
  %57 = load i32, ptr %4, align 4
  %58 = icmp uge i32 %57, 97
  br i1 %58, label %59, label %66

59:                                               ; preds = %56
  %60 = load i32, ptr %4, align 4
  %61 = icmp ule i32 %60, 122
  br i1 %61, label %62, label %66

62:                                               ; preds = %59
  %63 = load i32, ptr %4, align 4
  %64 = add i32 4, %63
  %65 = sub i32 %64, 97
  store i32 %65, ptr %3, align 4
  br label %135

66:                                               ; preds = %59, %56
  %67 = load i32, ptr %4, align 4
  %68 = icmp uge i32 %67, 65
  br i1 %68, label %69, label %81

69:                                               ; preds = %66
  %70 = load i32, ptr %4, align 4
  %71 = icmp ule i32 %70, 90
  br i1 %71, label %72, label %81

72:                                               ; preds = %69
  %73 = load ptr, ptr %5, align 8
  %74 = icmp ne ptr %73, null
  br i1 %74, label %75, label %77

75:                                               ; preds = %72
  %76 = load ptr, ptr %5, align 8
  store i16 3, ptr %76, align 2
  br label %77

77:                                               ; preds = %75, %72
  %78 = load i32, ptr %4, align 4
  %79 = add i32 4, %78
  %80 = sub i32 %79, 65
  store i32 %80, ptr %3, align 4
  br label %135

81:                                               ; preds = %69, %66
  call void @llvm.lifetime.start.p0(i64 4, ptr %8) #4
  store i32 0, ptr %8, align 4
  br label %82

82:                                               ; preds = %98, %81
  %83 = load i32, ptr %8, align 4
  %84 = sext i32 %83 to i64
  %85 = icmp ult i64 %84, 27
  br i1 %85, label %87, label %86

86:                                               ; preds = %82
  store i32 5, ptr %7, align 4
  br label %101

87:                                               ; preds = %82
  %88 = load i32, ptr %4, align 4
  %89 = load i32, ptr %8, align 4
  %90 = sext i32 %89 to i64
  %91 = getelementptr inbounds [27 x i32], ptr @normal_default_symbols, i64 0, i64 %90
  %92 = load i32, ptr %91, align 4
  %93 = icmp eq i32 %88, %92
  br i1 %93, label %94, label %97

94:                                               ; preds = %87
  %95 = load i32, ptr %8, align 4
  %96 = add nsw i32 30, %95
  store i32 %96, ptr %3, align 4
  store i32 1, ptr %7, align 4
  br label %101

97:                                               ; preds = %87
  br label %98

98:                                               ; preds = %97
  %99 = load i32, ptr %8, align 4
  %100 = add nsw i32 %99, 1
  store i32 %100, ptr %8, align 4
  br label %82, !llvm.loop !7

101:                                              ; preds = %94, %86
  call void @llvm.lifetime.end.p0(i64 4, ptr %8) #4
  %102 = load i32, ptr %7, align 4
  switch i32 %102, label %137 [
    i32 5, label %103
    i32 1, label %135
  ]

103:                                              ; preds = %101
  call void @llvm.lifetime.start.p0(i64 4, ptr %9) #4
  store i32 0, ptr %9, align 4
  br label %104

104:                                              ; preds = %125, %103
  %105 = load i32, ptr %9, align 4
  %106 = sext i32 %105 to i64
  %107 = icmp ult i64 %106, 27
  br i1 %107, label %109, label %108

108:                                              ; preds = %104
  store i32 8, ptr %7, align 4
  br label %128

109:                                              ; preds = %104
  %110 = load i32, ptr %4, align 4
  %111 = load i32, ptr %9, align 4
  %112 = sext i32 %111 to i64
  %113 = getelementptr inbounds [27 x i32], ptr @shifted_default_symbols, i64 0, i64 %112
  %114 = load i32, ptr %113, align 4
  %115 = icmp eq i32 %110, %114
  br i1 %115, label %116, label %124

116:                                              ; preds = %109
  %117 = load ptr, ptr %5, align 8
  %118 = icmp ne ptr %117, null
  br i1 %118, label %119, label %121

119:                                              ; preds = %116
  %120 = load ptr, ptr %5, align 8
  store i16 3, ptr %120, align 2
  br label %121

121:                                              ; preds = %119, %116
  %122 = load i32, ptr %9, align 4
  %123 = add nsw i32 30, %122
  store i32 %123, ptr %3, align 4
  store i32 1, ptr %7, align 4
  br label %128

124:                                              ; preds = %109
  br label %125

125:                                              ; preds = %124
  %126 = load i32, ptr %9, align 4
  %127 = add nsw i32 %126, 1
  store i32 %127, ptr %9, align 4
  br label %104, !llvm.loop !8

128:                                              ; preds = %121, %108
  call void @llvm.lifetime.end.p0(i64 4, ptr %9) #4
  %129 = load i32, ptr %7, align 4
  switch i32 %129, label %137 [
    i32 8, label %130
    i32 1, label %135
  ]

130:                                              ; preds = %128
  %131 = load i32, ptr %4, align 4
  %132 = icmp eq i32 %131, 127
  br i1 %132, label %133, label %134

133:                                              ; preds = %130
  store i32 76, ptr %3, align 4
  br label %135

134:                                              ; preds = %130
  store i32 0, ptr %3, align 4
  br label %135

135:                                              ; preds = %134, %133, %128, %101, %77, %62, %53, %48, %46, %17
  %136 = load i32, ptr %3, align 4
  ret i32 %136

137:                                              ; preds = %128, %101, %46
  unreachable
}

; Function Attrs: nounwind uwtable
define hidden i32 @SDL_GetKeymapScancode(ptr noundef %0, i32 noundef %1, ptr noundef %2) #0 {
  %4 = alloca ptr, align 8
  %5 = alloca i32, align 4
  %6 = alloca ptr, align 8
  %7 = alloca i32, align 4
  %8 = alloca ptr, align 8
  store ptr %0, ptr %4, align 8
  store i32 %1, ptr %5, align 4
  store ptr %2, ptr %6, align 8
  call void @llvm.lifetime.start.p0(i64 4, ptr %7) #4
  call void @llvm.lifetime.start.p0(i64 8, ptr %8) #4
  %9 = load ptr, ptr %4, align 8
  %10 = icmp ne ptr %9, null
  br i1 %10, label %11, label %33

11:                                               ; preds = %3
  %12 = load ptr, ptr %4, align 8
  %13 = getelementptr inbounds nuw %struct.SDL_Keymap, ptr %12, i32 0, i32 1
  %14 = load ptr, ptr %13, align 8
  %15 = load i32, ptr %5, align 4
  %16 = zext i32 %15 to i64
  %17 = inttoptr i64 %16 to ptr
  %18 = call zeroext i1 @SDL_FindInHashTable(ptr noundef %14, ptr noundef %17, ptr noundef %8)
  br i1 %18, label %19, label %33

19:                                               ; preds = %11
  %20 = load ptr, ptr %8, align 8
  %21 = ptrtoint ptr %20 to i64
  %22 = and i64 %21, 65535
  %23 = trunc i64 %22 to i32
  store i32 %23, ptr %7, align 4
  %24 = load ptr, ptr %6, align 8
  %25 = icmp ne ptr %24, null
  br i1 %25, label %26, label %32

26:                                               ; preds = %19
  %27 = load ptr, ptr %8, align 8
  %28 = ptrtoint ptr %27 to i64
  %29 = lshr i64 %28, 16
  %30 = trunc i64 %29 to i16
  %31 = load ptr, ptr %6, align 8
  store i16 %30, ptr %31, align 2
  br label %32

32:                                               ; preds = %26, %19
  br label %37

33:                                               ; preds = %11, %3
  %34 = load i32, ptr %5, align 4
  %35 = load ptr, ptr %6, align 8
  %36 = call i32 @SDL_GetDefaultScancodeFromKey(i32 noundef %34, ptr noundef %35)
  store i32 %36, ptr %7, align 4
  br label %37

37:                                               ; preds = %33, %32
  %38 = load i32, ptr %7, align 4
  call void @llvm.lifetime.end.p0(i64 8, ptr %8) #4
  call void @llvm.lifetime.end.p0(i64 4, ptr %7) #4
  ret i32 %38
}