; Function Attrs: nounwind uwtable
define hidden i32 @SDL_GetKeymapScancode(ptr noundef readonly captures(address_is_null) %0, i32 noundef %1, ptr noundef writeonly captures(address_is_null) %2) local_unnamed_addr #0 {
  %4 = alloca ptr, align 8
  call void @llvm.lifetime.start.p0(i64 8, ptr nonnull %4) #5
  %.not = icmp eq ptr %0, null
  br i1 %.not, label %19, label %5

5:                                                ; preds = %3
  %6 = getelementptr inbounds nuw i8, ptr %0, i64 8
  %7 = load ptr, ptr %6, align 8
  %8 = zext i32 %1 to i64
  %9 = inttoptr i64 %8 to ptr
  %10 = call zeroext i1 @SDL_FindInHashTable(ptr noundef %7, ptr noundef %9, ptr noundef nonnull %4) #5
  br i1 %10, label %11, label %19

11:                                               ; preds = %5
  %12 = load ptr, ptr %4, align 8
  %13 = ptrtoint ptr %12 to i64
  %14 = trunc i64 %13 to i32
  %15 = and i32 %14, 65535
  %.not9 = icmp eq ptr %2, null
  br i1 %.not9, label %SDL_GetDefaultScancodeFromKey.exit, label %16

16:                                               ; preds = %11
  %17 = lshr i64 %13, 16
  %18 = trunc i64 %17 to i16
  store i16 %18, ptr %2, align 2
  br label %SDL_GetDefaultScancodeFromKey.exit

19:                                               ; preds = %5, %3
  %.not.i = icmp eq ptr %2, null
  br i1 %.not.i, label %21, label %20

20:                                               ; preds = %19
  store i16 0, ptr %2, align 2
  br label %21

21:                                               ; preds = %20, %19
  %22 = icmp eq i32 %1, 0
  br i1 %22, label %SDL_GetDefaultScancodeFromKey.exit, label %23

23:                                               ; preds = %21
  %24 = and i32 %1, 536870912
  %.not51.i = icmp eq i32 %24, 0
  br i1 %.not51.i, label %32, label %.preheader67.i

25:                                               ; preds = %.preheader67.i
  %indvars.iv.next.i = add nuw nsw i64 %indvars.iv.i, 1
  %exitcond.i = icmp eq i64 %indvars.iv.next.i, 5
  br i1 %exitcond.i, label %SDL_GetDefaultScancodeFromKey.exit, label %.preheader67.i, !llvm.loop !3

.preheader67.i:                                   ; preds = %23, %25
  %indvars.iv.i = phi i64 [ %indvars.iv.next.i, %25 ], [ 0, %23 ]
  %26 = getelementptr inbounds nuw [5 x %struct.anon], ptr @extended_default_symbols, i64 0, i64 %indvars.iv.i
  %27 = load i32, ptr %26, align 8
  %28 = icmp eq i32 %27, %1
  br i1 %28, label %29, label %25

29:                                               ; preds = %.preheader67.i
  %30 = getelementptr inbounds nuw [5 x %struct.anon], ptr @extended_default_symbols, i64 0, i64 %indvars.iv.i, i32 1
  %31 = load i32, ptr %30, align 4
  br label %SDL_GetDefaultScancodeFromKey.exit

32:                                               ; preds = %23
  %33 = and i32 %1, 1073741824
  %.not52.i = icmp eq i32 %33, 0
  br i1 %.not52.i, label %36, label %34

34:                                               ; preds = %32
  %35 = and i32 %1, -1610612737
  br label %SDL_GetDefaultScancodeFromKey.exit

36:                                               ; preds = %32
  %37 = add i32 %1, -97
  %or.cond.i = icmp ult i32 %37, 26
  br i1 %or.cond.i, label %38, label %40

38:                                               ; preds = %36
  %39 = add nsw i32 %1, -93
  br label %SDL_GetDefaultScancodeFromKey.exit

40:                                               ; preds = %36
  %41 = add i32 %1, -65
  %or.cond3.i = icmp ult i32 %41, 26
  br i1 %or.cond3.i, label %42, label %.preheader66.i

42:                                               ; preds = %40
  br i1 %.not.i, label %44, label %43

43:                                               ; preds = %42
  store i16 3, ptr %2, align 2
  br label %44

44:                                               ; preds = %43, %42
  %45 = add nsw i32 %1, -61
  br label %SDL_GetDefaultScancodeFromKey.exit

.preheader66.i:                                   ; preds = %40, %51
  %indvars.iv78.i = phi i64 [ %indvars.iv.next79.i, %51 ], [ 0, %40 ]
  %46 = getelementptr inbounds nuw [27 x i32], ptr @normal_default_symbols, i64 0, i64 %indvars.iv78.i
  %47 = load i32, ptr %46, align 4
  %48 = icmp eq i32 %1, %47
  br i1 %48, label %.thread.i, label %51

.thread.i:                                        ; preds = %.preheader66.i
  %49 = trunc nuw nsw i64 %indvars.iv78.i to i32
  %50 = add nuw nsw i32 %49, 30
  br label %SDL_GetDefaultScancodeFromKey.exit

51:                                               ; preds = %.preheader66.i
  %indvars.iv.next79.i = add nuw nsw i64 %indvars.iv78.i, 1
  %exitcond81.not.i = icmp eq i64 %indvars.iv.next79.i, 27
  br i1 %exitcond81.not.i, label %.preheader.i, label %.preheader66.i, !llvm.loop !5

.preheader.i:                                     ; preds = %51, %58
  %indvars.iv82.i = phi i64 [ %indvars.iv.next83.i, %58 ], [ 0, %51 ]
  %52 = getelementptr inbounds nuw [27 x i32], ptr @shifted_default_symbols, i64 0, i64 %indvars.iv82.i
  %53 = load i32, ptr %52, align 4
  %54 = icmp eq i32 %1, %53
  br i1 %54, label %55, label %58

55:                                               ; preds = %.preheader.i
  %56 = trunc nuw nsw i64 %indvars.iv82.i to i32
  br i1 %.not.i, label %59, label %57

57:                                               ; preds = %55
  store i16 3, ptr %2, align 2
  br label %59

58:                                               ; preds = %.preheader.i
  %indvars.iv.next83.i = add nuw nsw i64 %indvars.iv82.i, 1
  %exitcond85.not.i = icmp eq i64 %indvars.iv.next83.i, 27
  br i1 %exitcond85.not.i, label %61, label %.preheader.i, !llvm.loop !6

59:                                               ; preds = %57, %55
  %60 = add nuw nsw i32 %56, 30
  br label %SDL_GetDefaultScancodeFromKey.exit

61:                                               ; preds = %58
  %62 = icmp eq i32 %1, 127
  %..i = select i1 %62, i32 76, i32 0
  br label %SDL_GetDefaultScancodeFromKey.exit

SDL_GetDefaultScancodeFromKey.exit:               ; preds = %25, %61, %59, %.thread.i, %44, %38, %34, %29, %21, %11, %16
  %.0 = phi i32 [ %15, %16 ], [ %15, %11 ], [ %35, %34 ], [ %39, %38 ], [ %45, %44 ], [ %60, %59 ], [ 0, %21 ], [ %..i, %61 ], [ %50, %.thread.i ], [ %31, %29 ], [ 0, %25 ]
  call void @llvm.lifetime.end.p0(i64 8, ptr nonnull %4) #5
  ret i32 %.0
}